(dp0
S'thresh'
p1
F0.02109303284229772
sS'mat'
p2
(lp3
(lp4
F-5.824961338056275
aF-3.786919696244932
aF-3.0922524285301796
aF-2.9852928882075025
aF-5.968190501984561
aF-4.3196799587312285
aF-3.8681493154154625
aF-5.591694059086395
aF-3.2149774048603694
aF-6.742503895672874
aF-4.480392910606603
aF-2.4548797109523224
aF-3.4884302128634497
aF-1.5637391358119597
aF-6.395057205143393
aF-3.6947061833228405
aF-7.656709121056007
aF-2.274869530455688
aF-2.269160620780028
aF-1.920086421621209
aF-4.523255028241802
aF-3.8124520615245054
aF-4.343091459678121
aF-6.559834452286439
aF-3.6333124651566617
aF-6.624488922174792
aF-5.8191401157966585
aF-7.282992711262423
aF-10.611619400089744
aF-8.392415916034748
aF-8.583471152797458
aF-8.803330628910478
aF-8.787070108038698
aF-9.581999982908584
aF-9.823162039725473
aF-10.516309220285418
aF-10.429297843295789
aF-10.27514716346853
aa(lp5
F-2.540326443193621
aF-5.069339730441178
aF-5.9578805493624305
aF-6.2009583155774575
aF-1.175313192191063
aF-7.9090677555185875
aF-8.565847291907659
aF-7.516025167408981
aF-3.306493528711318
aF-5.004395447480227
aF-8.807009348724547
aF-2.140168223405526
aF-5.9267899622924
aF-6.810455466850478
aF-2.143876652733743
aF-8.160382183799493
aF-8.807009348724547
aF-2.7202346218122395
aF-3.7724208136057977
aF-4.614603573326231
aF-2.138434619966436
aF-6.2776509363657125
aF-7.061769895131384
aF-8.90231952852887
aF-2.3627335729112016
aF-8.90231952852887
aF-6.235091321946916
aF-7.215920574958642
aF-8.90231952852887
aF-8.63995526406138
aF-8.90231952852887
aF-8.807009348724547
aF-8.90231952852887
aF-8.90231952852887
aF-8.807009348724547
aF-8.90231952852887
aF-8.90231952852887
aF-8.90231952852887
aa(lp6
F-2.071444906549979
aF-7.009153757653717
aF-3.7808568024738993
aF-6.509072673170704
aF-1.737329287356797
aF-6.860470560008593
aF-7.63585583880551
aF-1.9083103356370321
aF-2.9064473071044885
aF-8.706297250506923
aF-3.3440274720497767
aF-3.2593802972652
aF-7.183870715062453
aF-7.477631833590616
aF-1.594411359392507
aF-6.72529578164034
aF-6.3430875356964425
aF-3.363365091199935
aF-5.3476594832635636
aF-2.380968030184809
aF-3.212378835651078
aF-8.100161446936607
aF-6.821756047827902
aF-9.581765987860823
aF-4.621021463378033
aF-8.30083214239876
aF-6.293364100344012
aF-8.30083214239876
aF-9.581765987860823
aF-8.357990556238708
aF-8.626254542833387
aF-8.58851421485054
aF-8.706297250506923
aF-8.748856864925719
aF-9.399444431066868
aF-9.24529375123961
aF-9.486455808056498
aF-9.24529375123961
aa(lp7
F-2.413582289029739
aF-3.2053594147608844
aF-4.116658455737798
aF-3.7472024678908067
aF-1.9115940455585418
aF-3.8064837686882433
aF-4.378015521613167
aF-3.1646184434204523
aF-2.085605188041718
aF-5.631163475676331
aF-5.901918640640529
aF-3.8502442210011414
aF-3.887015620098264
aF-3.6692102017804427
aF-2.592562785432798
aF-3.989109653463157
aF-6.806790715289472
aF-3.2648825345532044
aF-2.798981263974019
aF-2.2487853774581756
aF-3.6560347806218783
aF-4.961193883429092
aF-3.468987434657248
aF-9.46792399660393
aF-4.270809135565057
aF-8.456323084925451
aF-3.6984318119196957
aF-5.56217060418938
aF-9.842617446045342
aF-7.786165422590204
aF-8.23317953361124
aF-8.71415219422755
aF-8.685164657354298
aF-9.149470265485396
aF-9.062458888495767
aF-9.532462517741502
aF-9.532462517741502
aF-9.675563361382176
aa(lp8
F-2.571508466058585
aF-4.222922710937184
aF-3.1393326427431854
aF-2.295852727022041
aF-3.41786542955314
aF-3.6673007157520536
aF-4.319806315702399
aF-4.002351109069657
aF-3.5838581291892306
aF-6.611231661631387
aF-5.854979435602777
aF-3.185998958675757
aF-3.310225674006299
aF-2.3172422616842674
aF-3.5642422825231823
aF-3.625866572991532
aF-5.915073337573755
aF-1.9023210895397198
aF-2.231953069575312
aF-2.903768421526392
aF-5.012465691374623
aF-3.92908711253516
aF-3.5239796926642417
aF-4.4472571836944095
aF-4.323839811362117
aF-7.644476460426863
aF-4.329120108520439
aF-6.077273970310165
aF-10.933556543968312
aF-8.155302084192853
aF-8.888800560276366
aF-9.111944111590576
aF-8.820592310249832
aF-9.439631518656055
aF-9.720533904122458
aF-10.240409363408366
aF-10.28692937904326
aF-9.999247306591478
aa(lp9
F-2.3095516257383326
aF-4.57612930401324
aF-4.273920121867199
aF-5.024118183603943
aF-2.3839554743624998
aF-2.7849195874103563
aF-5.178699063480857
aF-3.774863666680843
aF-2.291176071650366
aF-6.104827180779526
aF-6.553017233554032
aF-3.474772776520843
aF-4.383283492355853
aF-4.986138935538727
aF-1.8472478490098245
aF-4.491594197376874
aF-8.211245310157564
aF-2.288327305584692
aF-3.9272278066828537
aF-1.7707972988734197
aF-3.4216724011716932
aF-5.899328889734634
aF-4.407364463349121
aF-9.112031855495754
aF-5.017687293273653
aF-8.632458775233868
aF-4.8902642623522095
aF-5.91807943908001
aF-9.19207456316929
aF-5.7661845689167635
aF-7.258140605160692
aF-7.144381719804034
aF-6.771706434518861
aF-7.566107348783979
aF-8.6812489394033
aF-8.843767868901075
aF-8.54148699702814
aF-8.381144346952961
aa(lp10
F-2.17402090485914
aF-4.280201000510739
aF-4.672395771698007
aF-4.854039592105464
aF-1.9293347787362118
aF-4.158861953995137
aF-4.314365814001815
aF-2.02162363267008
aF-2.5374607293119564
aF-6.695809481908181
aF-7.195303539664621
aF-3.1972320620054235
aF-4.4333343862523
aF-3.548493924032177
aF-2.435540115856894
aF-4.573496764663154
aF-7.330849031660845
aF-2.468040370375938
aF-3.3774364508814383
aF-2.520764965850205
aF-3.2852543118404647
aF-6.364233215899175
aF-4.050059094146338
aF-8.973076766917936
aF-5.366673534628238
aF-8.567611658809772
aF-3.8968618271756985
aF-5.39652649777792
aF-9.155398323711891
aF-7.847065504061712
aF-8.62477007264972
aF-8.567611658809772
aF-8.27992958635799
aF-8.413460978982513
aF-9.060088143907565
aF-8.749933215603727
aF-9.155398323711891
aF-9.155398323711891
aa(lp11
F-1.7968981580709091
aF-5.900303788928151
aF-5.555671138031538
aF-6.01933448538269
aF-0.7268204424436452
aF-5.902800669126739
aF-6.2976968258856685
aF-4.729544837462863
aF-1.950956169511921
aF-8.353305892197406
aF-7.434120802296887
aF-5.8805500601919185
aF-5.251126736773369
aF-5.937133348207244
aF-2.497694270967868
aF-5.83164347481041
aF-8.636168678213238
aF-4.410458528568886
aF-4.898041289264976
aF-3.235138528929817
aF-4.555702021472624
aF-7.259536228005085
aF-5.164441145745245
aF-10.28482730380062
aF-4.8493600991053505
aF-9.75419905273845
aF-5.580717169957626
aF-7.030584335095129
aF-10.28482730380062
aF-8.205385762120784
aF-9.368536571926466
aF-9.090904835328185
aF-9.542889959071243
aF-9.591680123240675
aF-10.022463039333129
aF-10.022463039333129
aF-10.189517123996296
aF-10.189517123996296
aa(lp12
F-3.6079803306876617
aF-4.665548539452869
aF-2.758550181172601
aF-3.1855308806389675
aF-3.162440604701143
aF-3.877487663597857
aF-3.669071997443571
aF-5.772626796069777
aF-6.24774462392374
aF-9.343039387020587
aF-5.1125626504739055
aF-3.068571665201002
aF-3.154711097618876
aF-1.3122028090128568
aF-2.6587011342435085
aF-4.881090244204535
aF-7.758919282570776
aF-3.3945149614976797
aF-2.0331579011958
aF-2.090542584976752
aF-6.387153022013795
aF-3.812618727786868
aF-5.891069679985008
aF-6.167593120079721
aF-9.589899464952113
aF-5.511007007288933
aF-7.049873515943032
aF-7.5357757312565665
aF-10.506190196826267
aF-9.282414765204152
aF-10.100725088718104
aF-9.975561945764097
aF-10.243825932358776
aF-10.323868640032313
aF-10.243825932358776
aF-10.410880017021942
aF-10.506190196826267
aF-10.506190196826267
aa(lp13
F-2.3608833442715325
aF-6.524442975515106
aF-6.429132795710781
aF-6.524442975515106
aF-1.431920521946666
aF-6.524442975515106
aF-6.524442975515106
aF-6.524442975515106
aF-5.531191202504822
aF-6.524442975515106
aF-6.524442975515106
aF-6.524442975515106
aF-6.524442975515106
aF-6.524442975515106
aF-1.294939924967429
aF-6.524442975515106
aF-6.524442975515106
aF-6.342121418721152
aF-6.524442975515106
aF-6.524442975515106
aF-1.1168228740766193
aF-6.524442975515106
aF-6.429132795710781
aF-6.524442975515106
aF-6.524442975515106
aF-6.524442975515106
aF-4.2626798770413155
aF-6.524442975515106
aF-6.524442975515106
aF-6.524442975515106
aF-6.524442975515106
aF-6.524442975515106
aF-6.524442975515106
aF-6.524442975515106
aF-6.524442975515106
aF-6.524442975515106
aF-6.524442975515106
aF-6.524442975515106
aa(lp14
F-2.7546316399120863
aF-4.792479284293085
aF-4.9441638716251495
aF-5.4492588206821555
aF-1.2142210728079124
aF-4.597887634907316
aF-5.7274621491793924
aF-3.1296761513195386
aF-1.7053164006147656
aF-7.023605413304986
aF-7.212847412943514
aF-3.760217857649088
aF-4.861472155780037
aF-2.330992908713183
aF-2.9751242678760663
aF-5.092583876743423
aF-7.25540702736231
aF-4.830219612275932
aF-2.8081627543770487
aF-3.3969682680682705
aF-3.588506479967149
aF-6.478878237863314
aF-4.04351203363545
aF-8.088316150297414
aF-4.290582291271396
aF-7.99300597049309
aF-3.8571124053581163
aF-5.272907430874705
aF-8.088316150297414
aF-7.299858789933144
aF-7.557687899235244
aF-7.751843913676201
aF-7.751843913676201
aF-7.825951885829923
aF-8.088316150297414
aF-7.99300597049309
aF-7.99300597049309
aF-7.9059945935034595
aa(lp15
F-2.1458318671246137
aF-4.874572007027537
aF-4.61251507237858
aF-2.797797133594617
aF-1.769286952406799
aF-3.8799403116653197
aF-5.519626749493739
aF-5.08498074636409
aF-2.112819077453345
aF-7.2987757111298635
aF-4.887302497213685
aF-2.0442216907138313
aF-4.484312916419023
aF-5.461693114500762
aF-2.3570795842698553
aF-4.679789573335026
aF-7.711788024873411
aF-4.909806003936998
aF-3.535130606443235
aF-3.2658000952840553
aF-3.7721940698737746
aF-4.909806003936998
aF-4.515436710083888
aF-9.886539746357572
aF-2.3209018359158007
aF-8.45145522106825
aF-5.012870307334474
aF-6.2410898501709715
aF-9.886539746357572
aF-7.77028423155502
aF-8.404935205433356
aF-8.500245385237681
aF-8.662764314735456
aF-8.404935205433356
aF-9.355911495295402
aF-9.704218189563617
aF-9.550067509736358
aF-9.298753081455454
aa(lp16
F-1.6381235222216162
aF-3.4997102344203515
aF-5.462040243906842
aF-5.960481808473111
aF-1.3648958665099953
aF-5.1664456330818025
aF-6.387720716130836
aF-4.741241532016387
aF-2.3516450620327114
aF-7.873105979894958
aF-7.426818877266538
aF-5.48663940292021
aF-3.529571157420547
aF-5.136306365506762
aF-2.1321080063126137
aF-2.6610048519973897
aF-8.343109609140694
aF-5.105739201636329
aF-3.3187905879585156
aF-3.469440170117595
aF-3.4241023932239703
aF-6.802664568193545
aF-4.624671352785213
aF-9.441721897808803
aF-3.4062404652840472
aF-9.346411718004479
aF-3.9544384317481436
aF-6.513198373948263
aF-9.441721897808803
aF-7.7930632722214215
aF-8.188958929313435
aF-7.812481358078523
aF-8.699784553079427
aF-8.525431165934648
aF-8.911093646746632
aF-8.971718268563068
aF-9.346411718004479
aF-9.10524966118759
aa(lp17
F-2.754453266031692
aF-4.777314061266766
aF-2.9461743698371508
aF-1.7201485249465984
aF-2.4411472669141854
aF-4.159282866654882
aF-2.0996038012947245
aF-4.227003289009837
aF-2.96363975160721
aF-5.964188732359752
aF-4.829400418123688
aF-4.3528213520744075
aF-4.7387736459589895
aF-4.438179080447367
aF-2.5565742163769642
aF-5.027506469794617
aF-6.609159057570472
aF-5.2545474295288175
aF-2.8417954480620264
aF-1.8814998168767132
aF-4.641574891466797
aF-5.15564572186053
aF-4.301271076359418
aF-7.426243139361179
aF-4.4261223612469935
aF-8.611866805018918
aF-4.389466673752411
aF-6.279428748875191
aF-10.403626274246973
aF-6.06218491968817
aF-8.056589418682094
aF-8.268922053892089
aF-8.37070474820203
aF-8.611866805018918
aF-9.666027331116194
aF-9.623467716697398
aF-9.968308202989128
aF-9.623467716697398
aa(lp18
F-4.218810031940021
aF-4.363450249100946
aF-4.014782739385915
aF-3.8653432014237312
aF-5.1531353567035385
aF-2.1476088611714865
aF-4.860062435616881
aF-4.401591790168721
aF-4.1896859925147165
aF-6.639797711878135
aF-4.347021525475191
aF-3.151472758118033
aF-2.741695858797411
aF-1.7577808371898078
aF-3.4029176104075756
aF-3.7559768018131754
aF-8.20443748141234
aF-2.1365631914897074
aF-3.1629189427636755
aF-2.7340493308770784
aF-2.201632716420767
aF-3.526813752308317
aF-3.036066105994745
aF-6.661953703775343
aF-5.119909709075219
aF-7.676614281277779
aF-6.409508437423007
aF-6.419047460469765
aF-10.555812738575819
aF-8.501689004880273
aF-9.332037306953703
aF-9.600301293548382
aF-9.767355378211548
aF-10.025184487513648
aF-10.219340501954605
aF-10.373491181781864
aF-10.085809109330082
aF-10.293448474108327
aa(lp19
F-2.066114906987388
aF-6.02135703153551
aF-5.9805350370152555
aF-7.2115365137291105
aF-1.7354169196088334
aF-5.727444409333094
aF-7.253500712828143
aF-3.5472726203795935
aF-2.608697810659587
aF-8.24389941685602
aF-7.6101756567668755
aF-2.380268241257923
aF-5.821823345860435
aF-6.857605055736129
aF-2.0790473335024924
aF-2.7838230248487768
aF-8.557556975711062
aF-1.7858626016634032
aF-3.7674371105227458
aF-3.065579073488552
aF-3.187163775592946
aF-8.323942124529557
aF-5.567101759257914
aF-9.199410861883456
aF-4.921356817592553
aF-9.199410861883456
aF-4.779366160022054
aF-7.107546800205063
aF-9.199410861883456
aF-8.937046597415966
aF-9.017089305089502
aF-9.017089305089502
aF-9.104100682079132
aF-9.017089305089502
aF-9.199410861883456
aF-9.199410861883456
aF-9.199410861883456
aF-9.199410861883456
aa(lp20
F-6.204759762367377
aF-6.204759762367377
aF-6.204759762367377
aF-6.204759762367377
aF-6.204759762367377
aF-6.204759762367377
aF-6.204759762367377
aF-6.204759762367377
aF-6.204759762367377
aF-6.204759762367377
aF-6.204759762367377
aF-6.204759762367377
aF-6.204759762367377
aF-6.204759762367377
aF-6.204759762367377
aF-6.109449582563053
aF-6.204759762367377
aF-6.0224382055734225
aF-6.109449582563053
aF-6.204759762367377
aF-0.0796388304467218
aF-6.204759762367377
aF-6.204759762367377
aF-6.204759762367377
aF-6.204759762367377
aF-6.204759762367377
aF-5.799294654259213
aF-6.204759762367377
aF-6.204759762367377
aF-6.204759762367377
aF-6.204759762367377
aF-6.204759762367377
aF-6.204759762367377
aF-6.204759762367377
aF-6.204759762367377
aF-6.204759762367377
aF-6.204759762367377
aF-6.204759762367377
aa(lp21
F-2.331356620488452
aF-4.687904040695675
aF-3.9136197611080945
aF-3.573754716318575
aF-1.4056825767093437
aF-4.404948422844646
aF-4.178217855879343
aF-4.299668360946065
aF-2.269102975547069
aF-7.475552208525688
aF-4.767116725199486
aF-4.3091264161728615
aF-3.508428138575271
aF-3.7834986066017353
aF-2.201486078000553
aF-4.552017771724659
aF-7.892645354628971
aF-3.513143835201405
aF-2.722909246844287
aF-2.7211650458688705
aF-3.914768903481945
aF-4.72192831434488
aF-4.4307545540673505
aF-7.001222689332829
aF-3.226479098791944
aF-7.946712575899247
aF-4.3696444403571855
aF-6.225269605088652
aF-10.230948530225096
aF-7.535093602216704
aF-8.603492112288317
aF-8.621510617790996
aF-8.867643687329904
aF-8.891174184740098
aF-9.102483278407306
aF-9.584321365300044
aF-9.920793601921257
aF-9.738472045127303
aa(lp22
F-2.360773093283034
aF-4.204879590565766
aF-3.537213482866669
aF-4.6293158787422035
aF-2.0970903317110143
aF-4.070552663158798
aF-5.279144967555539
aF-2.6604814544720377
aF-2.4343964155867797
aF-6.739686077283636
aF-4.447517745147846
aF-4.106009593752604
aF-3.7839935050119093
aF-4.457250822115438
aF-2.403615220713433
aF-3.4588332994495024
aF-6.270654422843079
aF-4.762443674868052
aF-2.5019068181175066
aF-1.8482856494420337
aF-3.162085597099549
aF-5.795800339463595
aF-3.5547475381581934
aF-9.140175385259054
aF-4.928682909662954
aF-9.399686580744138
aF-3.616773495159882
aF-5.933950677944412
aF-10.130574089286931
aF-7.283877394893428
aF-7.502566595858257
aF-7.64566743949893
aF-7.577529634331712
aF-7.820326123547316
aF-9.006643992634531
aF-9.399686580744138
aF-9.651001009025045
aF-9.651001009025045
aa(lp23
F-2.7636348462995546
aF-4.76814518367013
aF-4.751939041200934
aF-5.246900692074757
aF-2.306833352830053
aF-4.931152394427606
aF-5.870134537503832
aF-1.0676054999246725
aF-2.1866756811855472
aF-7.5448919160585755
aF-6.594199757467088
aF-4.141336206328293
aF-4.706788586708167
aF-5.417156365019783
aF-2.16537866085201
aF-5.2066983955971615
aF-8.04192421769223
aF-3.347439373231942
aF-3.3215923893250188
aF-3.0014198445406994
aF-3.7647825648805378
aF-6.936485963953721
aF-3.861129699365829
aF-10.135159081504401
aF-4.051165997553971
aF-7.843747289108481
aF-4.529765595397949
aF-6.6055359112534235
aF-10.19231749534435
aF-8.307031968105472
aF-8.8208382200096
aF-9.499170314784404
aF-9.218868349630247
aF-9.264330723707005
aF-9.93448838604225
aF-10.135159081504401
aF-9.806655014532366
aF-10.19231749534435
aa(lp24
F-3.5140335135884504
aF-3.7013019741124937
aF-3.194217294620421
aF-3.9286111323564588
aF-3.275622490143452
aF-4.905663807815054
aF-3.1724943099194025
aF-5.551318682921167
aF-3.6951946408933227
aF-8.749991800471848
aF-5.522066140083729
aF-2.2519150390083227
aF-3.3367236882449403
aF-2.086278755094435
aF-5.820010904480638
aF-3.084666694027189
aF-8.749991800471848
aF-1.9007809221037126
aF-1.9484054446289116
aF-1.944420270237208
aF-7.651379511803738
aF-6.67624827990665
aF-5.467714464253151
aF-7.319245676781124
aF-6.989003989910547
aF-5.268751711136156
aF-6.026903722005097
aF-8.344526692363683
aF-9.538449160836118
aF-9.443138981031794
aF-9.443138981031794
aF-9.538449160836118
aF-9.443138981031794
aF-9.538449160836118
aF-9.443138981031794
aF-9.538449160836118
aF-9.538449160836118
aF-9.538449160836118
aa(lp25
F-2.403949010886401
aF-6.499558595415088
aF-6.438189649038796
aF-6.5923403288660545
aF-0.5231113083161001
aF-6.512297621192518
aF-6.649498742706003
aF-5.484511385093021
aF-1.7394423859332149
aF-8.096417725642329
aF-7.231420288155724
aF-5.188833838865042
aF-7.018858846172051
aF-4.500819261531618
aF-2.781980977214409
aF-6.462287200617856
aF-8.304057090420573
aF-5.521898917164641
aF-4.1682753383343
aF-5.611511075854328
aF-6.205567353770043
aF-8.096417725642329
aF-4.900298887896744
aF-8.47111117508374
aF-5.230651778548364
aF-8.566421354888064
aF-5.069913793421584
aF-7.2054448017524635
aF-8.566421354888064
aF-8.384099798094109
aF-8.566421354888064
aF-8.566421354888064
aF-8.566421354888064
aF-8.566421354888064
aF-8.566421354888064
aF-8.566421354888064
aF-8.566421354888064
aF-8.566421354888064
aa(lp26
F-1.5441496549767892
aF-5.404762659475851
aF-5.398132800937181
aF-4.758135494550798
aF-1.8796419797116533
aF-5.385003509495388
aF-6.3400802664047
aF-1.5819707877756473
aF-1.7221667637236904
aF-7.005370492461679
aF-6.687916261676228
aF-5.043883704477628
aF-5.382831955981881
aF-3.164855292257232
aF-2.448029394163469
aF-5.947885495217432
aF-7.7550298832849665
aF-4.400647872794075
aF-3.851414213692794
aF-3.9841418554368064
aF-6.328844193137774
aF-7.159521172288938
aF-4.602492648318845
aF-9.03132334919053
aF-5.38066510789679
aF-8.808179797876319
aF-4.770993649494167
aF-6.553385368718621
aF-9.213644905984482
aF-8.683016654922312
aF-8.951280641516993
aF-9.118334726180159
aF-8.87717266936327
aF-8.571791019812089
aF-9.118334726180159
aF-9.213644905984482
aF-9.213644905984482
aF-9.118334726180159
aa(lp27
F-2.1935471891041987
aF-5.91879428738901
aF-2.0337999543487832
aF-6.170108715669916
aF-2.464699959604769
aF-5.453431037699777
aF-6.442042431153558
aF-4.09066717399008
aF-2.046821969076895
aF-6.506580952291129
aF-6.506580952291129
aF-5.882426643218135
aF-5.577044993666953
aF-6.1235887000350235
aF-3.8210036070409776
aF-1.4990616188731307
aF-6.3814178093371225
aF-5.847335323406865
aF-5.087496768348247
aF-1.8318847036544272
aF-4.324282025171585
aF-4.30935637495491
aF-4.910566060189169
aF-4.487243334680999
aF-4.98052464879608
aF-6.912046060399294
aF-4.671336371123335
aF-4.362600889473722
aF-6.816735880594968
aF-5.956534615371857
aF-6.816735880594968
aF-6.649681795931802
aF-6.649681795931802
aF-6.729724503605339
aF-6.575573823778081
aF-6.912046060399294
aF-6.912046060399294
aF-6.912046060399294
aa(lp28
F-2.2112364242523204
aF-3.1911443121611263
aF-3.456317846222095
aF-3.5290911407010803
aF-2.7036548962971616
aF-3.5491560193070395
aF-4.393889948730283
aF-3.424684596019489
aF-2.844121925335787
aF-6.0566092277773205
aF-5.591593140042624
aF-3.7560161673145154
aF-3.4496904287390517
aF-4.236241350631789
aF-1.854667846319113
aF-3.5082529579471307
aF-6.6237156874419005
aF-3.8246174333923078
aF-2.438323072272417
aF-2.2945995359104714
aF-4.879869573909743
aF-5.616910948026914
aF-3.1108618616651045
aF-7.646342069132088
aF-5.358499257875247
aF-7.622244517553028
aF-3.1468034382397208
aF-4.96298448062025
aF-9.057329042842351
aF-6.418271713227092
aF-7.069454694688005
aF-7.553251646066077
aF-7.69635248970675
aF-7.958716754174241
aF-8.315391698112974
aF-8.651863934734186
aF-8.224419919907247
aF-8.651863934734186
aa(lp29
F-2.46187345771956
aF-5.443619489298811
aF-5.625941046092765
aF-4.620419180490668
aF-0.9537354587685156
aF-5.561402524955194
aF-5.849084597406975
aF-3.1749359479804466
aF-2.360181635325714
aF-6.03140615420093
aF-5.694933917579717
aF-3.8680831285403916
aF-4.016503133658665
aF-4.93279386553282
aF-1.7575216781467513
aF-5.769041889733439
aF-6.03140615420093
aF-5.769041889733439
aF-5.3382589736409845
aF-5.198497031265826
aF-3.1466054413542204
aF-5.849084597406975
aF-4.837483685728495
aF-6.03140615420093
aF-4.596321628911607
aF-3.8013917540417195
aF-4.807630722578814
aF-5.443619489298811
aF-6.03140615420093
aF-5.936095974396605
aF-6.03140615420093
aF-6.03140615420093
aF-6.03140615420093
aF-6.03140615420093
aF-6.03140615420093
aF-6.03140615420093
aF-6.03140615420093
aF-6.03140615420093
aa(lp30
F-2.5477632194658235
aF-3.2294526044043876
aF-4.204392063360051
aF-4.284714452198884
aF-4.242003334105834
aF-4.04212484339081
aF-4.801619122041257
aF-2.5909353913310325
aF-2.0645233137426167
aF-5.286365033024196
aF-5.858434282030904
aF-4.613218519170919
aF-4.093343059885011
aF-3.8067877481158208
aF-3.575336076710356
aF-3.826139518776771
aF-7.503590277067085
aF-4.576039515929166
aF-2.9516290948646824
aF-1.672107773124011
aF-5.742602466505783
aF-5.742602466505783
aF-2.9525883275521427
aF-7.3757569055572
aF-4.1253824136296275
aF-7.298795864421071
aF-2.207320459863683
aF-3.1764519076986124
aF-8.029683372963863
aF-4.826311734631628
aF-5.482644942068857
aF-5.823948105959736
aF-5.979512213584141
aF-6.140285434171893
aF-6.2251848779583785
aF-6.534189719878981
aF-6.643389011843973
aF-6.643389011843973
aa(lp31
F-2.791650241927159
aF-3.6110911478113965
aF-3.352679457659729
aF-3.7631073551100225
aF-4.032711696141846
aF-3.4478246345761288
aF-4.287288770057569
aF-3.6592404917089794
aF-3.267319608708572
aF-5.174591965058472
aF-5.164439593594453
aF-3.8596620901465517
aF-3.848762799688516
aF-4.01016645782079
aF-4.00698680490341
aF-3.795980100110597
aF-6.668516990370727
aF-3.873455412278888
aF-2.9494169936139065
aF-2.3601613603976896
aF-5.086730609267137
aF-5.377532809055162
aF-3.4923588951876807
aF-7.3616641709306725
aF-5.032171625016702
aF-6.581505613381098
aF-7.274652793941043
aF-1.051745892704156
aF-7.3616641709306725
aF-4.471292413034508
aF-4.892024993273461
aF-5.205682552128502
aF-5.164439593594453
aF-5.164439593594453
aF-5.752226258496572
aF-6.293823540929317
aF-6.1219732840026575
aF-6.540683618860842
aa(lp32
F-3.4796362397537175
aF-5.404927101606295
aF-4.578248528421827
aF-4.306314812938186
aF-5.153612673325389
aF-4.193836829511495
aF-4.9529419778632375
aF-4.865930600873608
aF-3.916850046176462
aF-5.559077781433553
aF-5.646089158423183
aF-5.741399338227508
aF-4.48863636973214
aF-4.825108606353353
aF-4.073692517669432
aF-4.306314812938186
aF-5.741399338227508
aF-5.153612673325389
aF-4.406398271495168
aF-3.3618532040973337
aF-5.210771087165337
aF-5.271395708981772
aF-4.172783420313663
aF-5.741399338227508
aF-5.646089158423183
aF-5.741399338227508
aF-2.494908346326334
aF-3.674536578754532
aF-1.2349451251785741
aF-2.8964899544081004
aF-3.0333491371252976
aF-3.4190116179372825
aF-3.469273452718171
aF-3.307785982827058
aF-3.4092554429919177
aF-3.448864581086964
aF-3.3995935320801807
aF-3.428863914380294
aa(lp33
F-4.942534881392324
aF-6.14650768571826
aF-5.453360505158314
aF-5.635682061952269
aF-5.798200991450044
aF-5.020496422862036
aF-6.066464978044723
aF-5.92336413440405
aF-4.993828175779875
aF-5.798200991450044
aF-6.14650768571826
aF-6.14650768571826
aF-5.92336413440405
aF-5.92336413440405
aF-5.264118505519786
aF-5.299209825331056
aF-6.328829242512215
aF-6.066464978044723
aF-5.586891897782837
aF-4.457027065610623
aF-6.23351906270789
aF-6.328829242512215
aF-5.68697535633982
aF-6.328829242512215
aF-6.328829242512215
aF-6.328829242512215
aF-2.882021349598007
aF-4.067066144038424
aF-2.5699574165782435
aF-2.80541422812581
aF-2.6833793463256144
aF-2.9684538553703144
aF-2.964987647393828
aF-2.9615334125257404
aF-2.6627067755208946
aF-2.373746747623622
aF-1.55138783558367
aF-2.3160563339839255
aa(lp34
F-4.106273133087375
aF-5.02256386496153
aF-4.882801922586371
aF-4.927253685157205
aF-4.973773700792098
aF-4.257096022821958
aF-5.07385715934908
aF-4.722459272511191
aF-4.927253685157205
aF-5.62040086571715
aF-5.715711045521475
aF-5.715711045521475
aF-5.185082794459304
aF-5.185082794459304
aF-4.462948077026107
aF-4.686091628340317
aF-5.715711045521475
aF-5.379238808900262
aF-4.722459272511191
aF-3.648848286048499
aF-5.715711045521475
aF-4.617098756853365
aF-4.552560235715794
aF-5.715711045521475
aF-5.53338948872752
aF-5.62040086571715
aF-2.4385663125292982
aF-3.552388019860937
aF-2.201184978552316
aF-2.4888670510040973
aF-2.755605949610635
aF-2.7300291078209855
aF-2.8421464059416914
aF-2.671188607798052
aF-2.8421464059416914
aF-2.888397423592447
aF-2.745296579951774
aF-2.9003023260987657
aa(lp35
F-4.04305126783455
aF-4.959341999708705
aF-4.90527477843843
aF-5.210656427989611
aF-5.284764400143333
aF-4.323353232988708
aF-5.36480710781687
aF-5.016500413548654
aF-5.077125035365088
aF-5.36480710781687
aF-5.451818484806499
aF-5.077125035365088
aF-5.016500413548654
aF-5.077125035365088
aF-4.383977854805144
aF-4.805191319881446
aF-5.547128664610824
aF-4.71421954167572
aF-5.14166355650266
aF-3.8066624897703196
aF-5.451818484806499
aF-5.451818484806499
aF-4.517509247429666
aF-5.547128664610824
aF-5.547128664610824
aF-5.547128664610824
aF-2.4837377425830183
aF-3.430873149808272
aF-2.3732502056733593
aF-2.6132717947749207
aF-2.429178758332584
aF-2.937058871868818
aF-2.696422163107091
aF-2.812761155191241
aF-2.6457070705280747
aF-2.8324339207899456
aF-2.7559635567981076
aF-2.787118724577903
aa(lp36
F-3.9604162654447195
aF-5.059028554112829
aF-5.43372200355424
aF-5.059028554112829
aF-5.1235670752504
aF-4.168055630222963
aF-5.059028554112829
aF-5.34671062656461
aF-4.696123060423461
aF-5.059028554112829
aF-5.43372200355424
aF-5.34671062656461
aF-4.9984039322963945
aF-5.34671062656461
aF-4.2480983378965
aF-4.787094838629187
aF-5.529032183358565
aF-5.43372200355424
aF-4.941245518456445
aF-3.9397969782419837
aF-5.43372200355424
aF-5.1235670752504
aF-4.696123060423461
aF-5.43372200355424
aF-5.529032183358565
aF-5.529032183358565
aF-2.4379897300002487
aF-3.5411578352042192
aF-2.553502617122093
aF-2.5484135476146217
aF-2.584593204192124
aF-2.5793438483059803
aF-2.756443461118783
aF-2.8687726460927028
aF-2.737867075545848
aF-2.7627130741323787
aF-2.7076532969493514
aF-2.6958188393023486
aa(lp37
F-4.1130867440318415
aF-4.951415934436285
aF-4.779565677509625
aF-5.159055299214529
aF-5.015954455573856
aF-4.588510440746916
aF-4.89079131261985
aF-4.779565677509625
aF-4.833632898779901
aF-5.2390980068880655
aF-5.42141956368202
aF-5.326109383877695
aF-5.015954455573856
aF-5.2390980068880655
aF-4.465908118654584
aF-4.258268753876339
aF-5.42141956368202
aF-5.326109383877695
aF-5.015954455573856
aF-3.9863350383926974
aF-5.2390980068880655
aF-5.326109383877695
aF-4.588510440746916
aF-5.42141956368202
aF-5.2390980068880655
aF-5.42141956368202
aF-2.42069974861699
aF-3.393271316389735
aF-2.1906151679485455
aF-2.5649493574615367
aF-2.4822576416164233
aF-2.5941059417529924
aF-2.5649493574615367
aF-3.1288848065414756
aF-3.305164048879468
aF-2.848807333474914
aF-2.9790725283128157
aF-2.7335720698973294
aa(lp38
F-4.11231929925995
aF-4.999622494260854
aF-4.866091101636331
aF-4.805466479819896
aF-4.866091101636331
aF-3.8320173341057924
aF-4.7483080659799475
aF-4.805466479819896
aF-4.805466479819896
aF-5.240784551077741
aF-5.336094730882067
aF-5.153773174088112
aF-5.240784551077741
aF-5.153773174088112
aF-4.419803999007912
aF-4.594157386152689
aF-5.336094730882067
aF-5.336094730882067
aF-4.930629622773902
aF-3.7468595257654855
aF-5.073730466414576
aF-5.240784551077741
aF-4.271383993889638
aF-5.336094730882067
aF-5.336094730882067
aF-5.336094730882067
aF-2.3453749991516197
aF-3.375999946834797
aF-2.272703808854261
aF-2.497016267373452
aF-2.77886741951444
aF-2.7483306956543587
aF-2.8023979169246345
aF-2.6688665243001117
aF-2.8850896327697475
aF-3.1060803307228566
aF-3.074331632408276
aF-2.8346587791428557
aa(lp39
F-3.9288044823901496
aF-4.819777406280014
aF-4.884315927417586
aF-5.28978103552575
aF-4.50132367516148
aF-4.2601616183445925
aF-5.107459478731796
aF-4.701994370623631
aF-4.5966338549658055
aF-5.02741677105826
aF-5.194470855721425
aF-5.194470855721425
aF-4.953308798904537
aF-5.194470855721425
aF-4.547843690796373
aF-4.647927149353356
aF-5.194470855721425
aF-5.107459478731796
aF-4.647927149353356
aF-3.66054049579547
aF-5.194470855721425
aF-5.194470855721425
aF-4.547843690796373
aF-5.28978103552575
aF-5.194470855721425
aF-5.28978103552575
aF-2.4565676914695342
aF-3.3157000095037406
aF-2.7801817731473784
aF-2.764052391217495
aF-2.9195372940578896
aF-2.9479752293784234
aF-3.081506622002946
aF-2.732553724158124
aF-2.5817308344235403
aF-2.427580154596282
aF-2.5619282071273606
aF-2.6723852026916712
aa(lp40
F-4.170919726448173
aF-5.220741850946851
aF-5.37489253077411
aF-5.294849823100574
aF-5.220741850946851
aF-4.425811976076964
aF-5.37489253077411
aF-5.087210458322328
aF-5.220741850946851
aF-5.557214087568064
aF-5.461903907763739
aF-5.37489253077411
aF-5.1517489794599
aF-5.294849823100574
aF-4.681745350214165
aF-4.969427422665945
aF-5.557214087568064
aF-5.1517489794599
aF-5.087210458322328
aF-4.304451119072696
aF-5.294849823100574
aF-5.557214087568064
aF-4.864066907008119
aF-5.557214087568064
aF-5.557214087568064
aF-5.557214087568064
aF-2.6668423296718995
aF-3.611303938512751
aF-2.44815312870707
aF-2.3264096918345896
aF-2.797204147535143
aF-2.8693665937833734
aF-2.7599327527379116
aF-2.650313027720689
aF-2.3264096918345896
aF-2.6340525068489087
aF-2.9253252474314184
aF-2.484520772877945
aa(lp41
F-3.9625211119427344
aF-4.987025428457122
aF-4.68164377890594
aF-4.8534940358325995
aF-4.918032556970171
aF-3.8884131397890123
aF-4.987025428457122
aF-4.581560320348958
aF-4.8534940358325995
aF-5.14117610828438
aF-5.323497665078335
aF-5.14117610828438
aF-5.2281874852740104
aF-4.987025428457122
aF-4.8534940358325995
aF-4.735711000176216
aF-5.323497665078335
aF-4.987025428457122
aF-4.987025428457122
aF-3.988496598345995
aF-5.061133400610844
aF-5.14117610828438
aF-4.792869414016164
aF-5.323497665078335
aF-5.2281874852740104
aF-5.323497665078335
aF-2.5323325572656183
aF-3.195265959229067
aF-2.218910986612262
aF-1.9323506192696809
aF-2.6221364521269215
aF-2.8385910152903344
aF-3.030962907937791
aF-3.061734566604544
aF-2.9439515309481608
aF-3.322017664868211
aF-3.10429418102334
aF-2.9439515309481608
aas.